target datalayout = "e-m:e-p270:32:32-p271:32:32-p272:64:64-i64:64-i128:128-f80:128-n8:16:32:64-S128"
target triple = "x86_64-pc-linux-gnu"

%struct.ImRect = type { %struct.ImVec2, %struct.ImVec2 }
%struct.ImVec2 = type { float, float }
%struct.ImGuiTextBuffer = type { %struct.ImVector.28 }
%struct.ImVector.28 = type { i32, i32, ptr }
%struct.ImGuiTableInstanceData = type { i32, float, float, float, i32, i32 }
%struct.ImGuiTableColumn = type <{ i32, float, float, float, float, float, float, float, float, %struct.ImRect, i32, float, float, float, float, float, float, float, i16, i16, i16, i16, i16, i16, i16, i16, i16, i8, i8, i8, i8, i8, i8, i8, i8, i8, i8, i8, i8, i8, i8 }>
%struct.ImGuiTable = type <{ i32, i32, ptr, ptr, %struct.ImSpan, %struct.ImSpan.41, %struct.ImSpan.42, ptr, ptr, ptr, i32, i32, i32, i32, i32, i32, i16, i16, float, float, float, float, float, float, i32, i32, [2 x i32], i32, i32, float, float, float, float, float, float, float, float, float, float, float, float, float, float, float, float, float, %struct.ImRect, %struct.ImRect, %struct.ImRect, %struct.ImRect, %struct.ImRect, %struct.ImRect, %struct.ImRect, %struct.ImRect, %struct.ImRect, ptr, ptr, %struct.ImGuiTextBuffer, ptr, %struct.ImGuiTableInstanceData, %struct.ImVector.43, %struct.ImGuiTableColumnSortSpecs, [4 x i8], %struct.ImVector.44, %struct.ImGuiTableSortSpecs, i16, i16, i16, i16, i16, i16, i16, i16, i16, i16, i16, i16, i16, i16, i16, i16, i16, i16, i16, i16, i16, i16, i16, i16, i16, i16, i16, i8, i8, i8, i8, i8, i8, i8, i8, i8, i8, i8, i8, i8, i8, i8, i8, i8, i8, i8, i8, [6 x i8] }>
%struct.ImSpan = type { ptr, ptr }
%struct.ImSpan.41 = type { ptr, ptr }
%struct.ImSpan.42 = type { ptr, ptr }
%struct.ImVector.43 = type { i32, i32, ptr }
%struct.ImGuiTableColumnSortSpecs = type <{ i32, i16, i16, i8, [3 x i8] }>
%struct.ImVector.44 = type { i32, i32, ptr }
%struct.ImGuiTableSortSpecs = type <{ ptr, i32, i8, [3 x i8] }>

; Function Attrs: inlinehint mustprogress nounwind uwtable
define linkonce_odr dso_local noundef nonnull align 4 dereferenceable(115) ptr @_ZN6ImSpanI16ImGuiTableColumnEixEi(ptr noundef nonnull align 8 dereferenceable(16) %0, i32 noundef %1) #4 comdat align 2 {
  %3 = alloca ptr, align 8
  %4 = alloca i32, align 4
  %5 = alloca ptr, align 8
  store ptr %0, ptr %3, align 8, !tbaa !335
  store i32 %1, ptr %4, align 4, !tbaa !4
  %6 = load ptr, ptr %3, align 8
  call void @llvm.lifetime.start.p0(i64 8, ptr %5) #8
  %7 = getelementptr inbounds nuw %struct.ImSpan, ptr %6, i32 0, i32 0
  %8 = load ptr, ptr %7, align 8, !tbaa !338
  %9 = load i32, ptr %4, align 4, !tbaa !4
  %10 = sext i32 %9 to i64
  %11 = getelementptr inbounds %struct.ImGuiTableColumn, ptr %8, i64 %10
  store ptr %11, ptr %5, align 8, !tbaa !259
  %12 = load ptr, ptr %5, align 8, !tbaa !259
  call void @llvm.lifetime.end.p0(i64 8, ptr %5) #8
  ret ptr %12
}

; Function Attrs: mustprogress uwtable
define dso_local void @_ZN5ImGui33TableUpdateColumnsWeightFromWidthEP10ImGuiTable(ptr noundef %0) #0 {
  %2 = alloca ptr, align 8
  %3 = alloca float, align 4
  %4 = alloca float, align 4
  %5 = alloca i32, align 4
  %6 = alloca i32, align 4
  %7 = alloca ptr, align 8
  %8 = alloca i32, align 4
  %9 = alloca ptr, align 8
  store ptr %0, ptr %2, align 8, !tbaa !166
  call void @llvm.lifetime.start.p0(i64 4, ptr %3) #8
  store float 0.000000e+00, ptr %3, align 4, !tbaa !17
  call void @llvm.lifetime.start.p0(i64 4, ptr %4) #8
  store float 0.000000e+00, ptr %4, align 4, !tbaa !17
  call void @llvm.lifetime.start.p0(i64 4, ptr %5) #8
  store i32 0, ptr %5, align 4, !tbaa !4
  br label %10

10:                                               ; preds = %47, %1
  %11 = load i32, ptr %5, align 4, !tbaa !4
  %12 = load ptr, ptr %2, align 8, !tbaa !166
  %13 = getelementptr inbounds nuw %struct.ImGuiTable, ptr %12, i32 0, i32 13
  %14 = load i32, ptr %13, align 4, !tbaa !199
  %15 = icmp slt i32 %11, %14
  br i1 %15, label %17, label %16

16:                                               ; preds = %10
  store i32 2, ptr %6, align 4
  call void @llvm.lifetime.end.p0(i64 4, ptr %5) #8
  br label %50

17:                                               ; preds = %10
  call void @llvm.lifetime.start.p0(i64 8, ptr %7) #8
  %18 = load ptr, ptr %2, align 8, !tbaa !166
  %19 = getelementptr inbounds nuw %struct.ImGuiTable, ptr %18, i32 0, i32 4
  %20 = load i32, ptr %5, align 4, !tbaa !4
  %21 = call noundef nonnull align 4 dereferenceable(115) ptr @_ZN6ImSpanI16ImGuiTableColumnEixEi(ptr noundef nonnull align 8 dereferenceable(16) %19, i32 noundef %20)
  store ptr %21, ptr %7, align 8, !tbaa !259
  %22 = load ptr, ptr %7, align 8, !tbaa !259
  %23 = getelementptr inbounds nuw %struct.ImGuiTableColumn, ptr %22, i32 0, i32 27
  %24 = load i8, ptr %23, align 2, !tbaa !284, !range !64, !noundef !65
  %25 = trunc i8 %24 to i1
  br i1 %25, label %26, label %32

26:                                               ; preds = %17
  %27 = load ptr, ptr %7, align 8, !tbaa !259
  %28 = getelementptr inbounds nuw %struct.ImGuiTableColumn, ptr %27, i32 0, i32 0
  %29 = load i32, ptr %28, align 4, !tbaa !399
  %30 = and i32 %29, 8
  %31 = icmp ne i32 %30, 0
  br i1 %31, label %33, label %32

32:                                               ; preds = %26, %17
  store i32 4, ptr %6, align 4
  br label %44

33:                                               ; preds = %26
  %34 = load ptr, ptr %7, align 8, !tbaa !259
  %35 = getelementptr inbounds nuw %struct.ImGuiTableColumn, ptr %34, i32 0, i32 7
  %36 = load float, ptr %35, align 4, !tbaa !345
  %37 = load float, ptr %3, align 4, !tbaa !17
  %38 = fadd float %37, %36
  store float %38, ptr %3, align 4, !tbaa !17
  %39 = load ptr, ptr %7, align 8, !tbaa !259
  %40 = getelementptr inbounds nuw %struct.ImGuiTableColumn, ptr %39, i32 0, i32 4
  %41 = load float, ptr %40, align 4, !tbaa !290
  %42 = load float, ptr %4, align 4, !tbaa !17
  %43 = fadd float %42, %41
  store float %43, ptr %4, align 4, !tbaa !17
  store i32 0, ptr %6, align 4
  br label %44

44:                                               ; preds = %33, %32
  call void @llvm.lifetime.end.p0(i64 8, ptr %7) #8
  %45 = load i32, ptr %6, align 4
  switch i32 %45, label %91 [
    i32 0, label %46
    i32 4, label %47
  ]

46:                                               ; preds = %44
  br label %47

47:                                               ; preds = %46, %44
  %48 = load i32, ptr %5, align 4, !tbaa !4
  %49 = add nsw i32 %48, 1
  store i32 %49, ptr %5, align 4, !tbaa !4
  br label %10, !llvm.loop !579

50:                                               ; preds = %16
  call void @llvm.lifetime.start.p0(i64 4, ptr %8) #8
  store i32 0, ptr %8, align 4, !tbaa !4
  br label %51

51:                                               ; preds = %87, %50
  %52 = load i32, ptr %8, align 4, !tbaa !4
  %53 = load ptr, ptr %2, align 8, !tbaa !166
  %54 = getelementptr inbounds nuw %struct.ImGuiTable, ptr %53, i32 0, i32 13
  %55 = load i32, ptr %54, align 4, !tbaa !199
  %56 = icmp slt i32 %52, %55
  br i1 %56, label %58, label %57

57:                                               ; preds = %51
  store i32 5, ptr %6, align 4
  call void @llvm.lifetime.end.p0(i64 4, ptr %8) #8
  br label %90

58:                                               ; preds = %51
  call void @llvm.lifetime.start.p0(i64 8, ptr %9) #8
  %59 = load ptr, ptr %2, align 8, !tbaa !166
  %60 = getelementptr inbounds nuw %struct.ImGuiTable, ptr %59, i32 0, i32 4
  %61 = load i32, ptr %8, align 4, !tbaa !4
  %62 = call noundef nonnull align 4 dereferenceable(115) ptr @_ZN6ImSpanI16ImGuiTableColumnEixEi(ptr noundef nonnull align 8 dereferenceable(16) %60, i32 noundef %61)
  store ptr %62, ptr %9, align 8, !tbaa !259
  %63 = load ptr, ptr %9, align 8, !tbaa !259
  %64 = getelementptr inbounds nuw %struct.ImGuiTableColumn, ptr %63, i32 0, i32 27
  %65 = load i8, ptr %64, align 2, !tbaa !284, !range !64, !noundef !65
  %66 = trunc i8 %65 to i1
  br i1 %66, label %67, label %73

67:                                               ; preds = %58
  %68 = load ptr, ptr %9, align 8, !tbaa !259
  %69 = getelementptr inbounds nuw %struct.ImGuiTableColumn, ptr %68, i32 0, i32 0
  %70 = load i32, ptr %69, align 4, !tbaa !399
  %71 = and i32 %70, 8
  %72 = icmp ne i32 %71, 0
  br i1 %72, label %74, label %73

73:                                               ; preds = %67, %58
  store i32 7, ptr %6, align 4
  br label %84

74:                                               ; preds = %67
  %75 = load ptr, ptr %9, align 8, !tbaa !259
  %76 = getelementptr inbounds nuw %struct.ImGuiTableColumn, ptr %75, i32 0, i32 4
  %77 = load float, ptr %76, align 4, !tbaa !290
  %78 = load float, ptr %4, align 4, !tbaa !17
  %79 = fdiv float %77, %78
  %80 = load float, ptr %3, align 4, !tbaa !17
  %81 = fmul float %79, %80
  %82 = load ptr, ptr %9, align 8, !tbaa !259
  %83 = getelementptr inbounds nuw %struct.ImGuiTableColumn, ptr %82, i32 0, i32 7
  store float %81, ptr %83, align 4, !tbaa !345
  store i32 0, ptr %6, align 4
  br label %84

84:                                               ; preds = %74, %73
  call void @llvm.lifetime.end.p0(i64 8, ptr %9) #8
  %85 = load i32, ptr %6, align 4
  switch i32 %85, label %91 [
    i32 0, label %86
    i32 7, label %87
  ]

86:                                               ; preds = %84
  br label %87

87:                                               ; preds = %86, %84
  %88 = load i32, ptr %8, align 4, !tbaa !4
  %89 = add nsw i32 %88, 1
  store i32 %89, ptr %8, align 4, !tbaa !4
  br label %51, !llvm.loop !580

90:                                               ; preds = %57
  call void @llvm.lifetime.end.p0(i64 4, ptr %4) #8
  call void @llvm.lifetime.end.p0(i64 4, ptr %3) #8
  ret void

91:                                               ; preds = %84, %44
  unreachable
}